target datalayout = "e-m:e-p270:32:32-p271:32:32-p272:64:64-i64:64-i128:128-f80:128-n8:16:32:64-S128"
target triple = "x86_64-pc-linux-gnu"

%struct.Parser = type { ptr, ptr, i32, i32, i32, ptr, ptr, ptr, i32, i32, ptr, i32, ptr, i32, i32, i32, i32, i32, %struct.growable_comment_array, ptr, i32, i32, i32 }
%struct.growable_comment_array = type { ptr, i64, i64 }

; Function Attrs: nounwind uwtable
define hidden i32 @_PyPegen_lookahead_with_name(i32 noundef %0, ptr noundef %1, ptr noundef %2) #0 {
  %4 = alloca i32, align 4
  %5 = alloca ptr, align 8
  %6 = alloca ptr, align 8
  %7 = alloca i32, align 4
  %8 = alloca ptr, align 8
  store i32 %0, ptr %4, align 4, !tbaa !18
  store ptr %1, ptr %5, align 8, !tbaa !4
  store ptr %2, ptr %6, align 8, !tbaa !4
  call void @llvm.lifetime.start.p0(i64 4, ptr %7) #10
  %9 = load ptr, ptr %6, align 8, !tbaa !4
  %10 = getelementptr inbounds nuw %struct.Parser, ptr %9, i32 0, i32 2
  %11 = load i32, ptr %10, align 8, !tbaa !38
  store i32 %11, ptr %7, align 4, !tbaa !18
  call void @llvm.lifetime.start.p0(i64 8, ptr %8) #10
  %12 = load ptr, ptr %5, align 8, !tbaa !4
  %13 = load ptr, ptr %6, align 8, !tbaa !4
  %14 = call ptr %12(ptr noundef %13)
  store ptr %14, ptr %8, align 8, !tbaa !4
  %15 = load i32, ptr %7, align 4, !tbaa !18
  %16 = load ptr, ptr %6, align 8, !tbaa !4
  %17 = getelementptr inbounds nuw %struct.Parser, ptr %16, i32 0, i32 2
  store i32 %15, ptr %17, align 8, !tbaa !38
  %18 = load ptr, ptr %8, align 8, !tbaa !4
  %19 = icmp ne ptr %18, null
  %20 = zext i1 %19 to i32
  %21 = load i32, ptr %4, align 4, !tbaa !18
  %22 = icmp eq i32 %20, %21
  %23 = zext i1 %22 to i32
  call void @llvm.lifetime.end.p0(i64 8, ptr %8) #10
  call void @llvm.lifetime.end.p0(i64 4, ptr %7) #10
  ret i32 %23
}